---
triple:          'arm64-apple-darwin'
binary-path:     '/Users/maojie.li/code/CppPractice/OOP/main'
relocations:
  - { offsetInCU: 0x2F2F, offset: 0x2F2F, size: 0x8, addend: 0x0, symName: __ZNSt3__124__put_character_sequenceB7v160006IcNS_11char_traitsIcEEEERNS_13basic_ostreamIT_T0_EES7_PKS4_m, symObjAddr: 0x23C, symBinAddr: 0x100002008, symSize: 0x1EC }
  - { offsetInCU: 0x4E33, offset: 0x4E33, size: 0x8, addend: 0x0, symName: __ZNSt3__111make_sharedB7v160006I1CJEvEENS_10shared_ptrIT_EEDpOT0_, symObjAddr: 0xF4, symBinAddr: 0x100001EC0, symSize: 0x38 }
  - { offsetInCU: 0x507D, offset: 0x507D, size: 0x8, addend: 0x0, symName: __ZNSt3__1lsB7v160006INS_11char_traitsIcEEEERNS_13basic_ostreamIcT_EES6_PKc, symObjAddr: 0x144, symBinAddr: 0x100001F10, symSize: 0x48 }
  - { offsetInCU: 0x50C3, offset: 0x50C3, size: 0x8, addend: 0x0, symName: __ZNSt3__14endlB7v160006IcNS_11char_traitsIcEEEERNS_13basic_ostreamIT_T0_EES7_, symObjAddr: 0x1B8, symBinAddr: 0x100001F84, symSize: 0x58 }
  - { offsetInCU: 0x5103, offset: 0x5103, size: 0x8, addend: 0x0, symName: __ZNSt3__116__pad_and_outputB7v160006IcNS_11char_traitsIcEEEENS_19ostreambuf_iteratorIT_T0_EES6_PKS4_S8_S8_RNS_8ios_baseES4_, symObjAddr: 0x478, symBinAddr: 0x100002244, symSize: 0x240 }
  - { offsetInCU: 0x51D2, offset: 0x51D2, size: 0x8, addend: 0x0, symName: __ZNSt3__119__debug_db_insert_cB7v160006INS_12basic_stringIcNS_11char_traitsIcEENS_9allocatorIcEEEEEEvPT_, symObjAddr: 0x938, symBinAddr: 0x100002704, symSize: 0x10 }
  - { offsetInCU: 0x5203, offset: 0x5203, size: 0x8, addend: 0x0, symName: __ZNSt3__112__to_addressB7v160006IcEEPT_S2_, symObjAddr: 0xA04, symBinAddr: 0x1000027D0, symSize: 0x14 }
  - { offsetInCU: 0x526B, offset: 0x526B, size: 0x8, addend: 0x0, symName: __ZNSt3__19use_facetB7v160006INS_5ctypeIcEEEERKT_RKNS_6localeE, symObjAddr: 0xCBC, symBinAddr: 0x100002A88, symSize: 0x2C }
  - { offsetInCU: 0x573A, offset: 0x573A, size: 0x8, addend: 0x0, symName: __ZNSt3__118__constexpr_strlenB7v160006EPKc, symObjAddr: 0xD54, symBinAddr: 0x100002B20, symSize: 0x24 }
  - { offsetInCU: 0x5766, offset: 0x5766, size: 0x8, addend: 0x0, symName: __ZNSt3__115allocate_sharedB7v160006I1CNS_9allocatorIS1_EEJEvEENS_10shared_ptrIT_EERKT0_DpOT1_, symObjAddr: 0xD78, symBinAddr: 0x100002B44, symSize: 0x90 }
  - { offsetInCU: 0x5A5F, offset: 0x5A5F, size: 0x8, addend: 0x0, symName: __ZNSt3__117__libcpp_allocateB7v160006Emm, symObjAddr: 0x1170, symBinAddr: 0x100002F3C, symSize: 0x60 }
  - { offsetInCU: 0x5AB9, offset: 0x5AB9, size: 0x8, addend: 0x0, symName: __ZNSt3__124__is_overaligned_for_newB7v160006Em, symObjAddr: 0x11E8, symBinAddr: 0x100002FB4, symSize: 0x20 }
  - { offsetInCU: 0x5AE7, offset: 0x5AE7, size: 0x8, addend: 0x0, symName: __ZNSt3__121__libcpp_operator_newB7v160006IJmSt11align_val_tEEEPvDpT_, symObjAddr: 0x1208, symBinAddr: 0x100002FD4, symSize: 0x2C }
  - { offsetInCU: 0x5B34, offset: 0x5B34, size: 0x8, addend: 0x0, symName: __ZNSt3__121__libcpp_operator_newB7v160006IJmEEEPvDpT_, symObjAddr: 0x1234, symBinAddr: 0x100003000, symSize: 0x24 }
  - { offsetInCU: 0x5BA0, offset: 0x5BA0, size: 0x8, addend: 0x0, symName: __ZNSt3__119__libcpp_deallocateB7v160006EPvmm, symObjAddr: 0x19E8, symBinAddr: 0x1000037B4, symSize: 0x60 }
  - { offsetInCU: 0x5C05, offset: 0x5C05, size: 0x8, addend: 0x0, symName: __ZNSt3__127__do_deallocate_handle_sizeB7v160006IJSt11align_val_tEEEvPvmDpT_, symObjAddr: 0x1A48, symBinAddr: 0x100003814, symSize: 0x30 }
  - { offsetInCU: 0x5C58, offset: 0x5C58, size: 0x8, addend: 0x0, symName: __ZNSt3__127__do_deallocate_handle_sizeB7v160006IJEEEvPvmDpT_, symObjAddr: 0x1A78, symBinAddr: 0x100003844, symSize: 0x28 }
  - { offsetInCU: 0x5C96, offset: 0x5C96, size: 0x8, addend: 0x0, symName: __ZNSt3__124__libcpp_operator_deleteB7v160006IJPvSt11align_val_tEEEvDpT_, symObjAddr: 0x1AA0, symBinAddr: 0x10000386C, symSize: 0x2C }
  - { offsetInCU: 0x5CDF, offset: 0x5CDF, size: 0x8, addend: 0x0, symName: __ZNSt3__124__libcpp_operator_deleteB7v160006IJPvEEEvDpT_, symObjAddr: 0x1ACC, symBinAddr: 0x100003898, symSize: 0x24 }
  - { offsetInCU: 0x5D14, offset: 0x5D14, size: 0x8, addend: 0x0, symName: __ZNSt3__134__libcpp_atomic_refcount_decrementB7v160006IlEET_RS1_, symObjAddr: 0x1D3C, symBinAddr: 0x100003B08, symSize: 0x30 }
  - { offsetInCU: 0x5F95, offset: 0x5F95, size: 0x8, addend: 0x0, symName: __ZSt28__throw_bad_array_new_lengthB7v160006v, symObjAddr: 0x113C, symBinAddr: 0x100002F08, symSize: 0x34 }
  - { offsetInCU: 0x86C2, offset: 0x86C2, size: 0x8, addend: 0x0, symName: _main, symObjAddr: 0x0, symBinAddr: 0x100001DCC, symSize: 0xF4 }
  - { offsetInCU: 0x872D, offset: 0x872D, size: 0x8, addend: 0x0, symName: __ZNKSt3__110shared_ptrI1CE3getB7v160006Ev, symObjAddr: 0x12C, symBinAddr: 0x100001EF8, symSize: 0x18 }
  - { offsetInCU: 0x8753, offset: 0x8753, size: 0x8, addend: 0x0, symName: __ZNSt3__113basic_ostreamIcNS_11char_traitsIcEEElsB7v160006EPFRS3_S4_E, symObjAddr: 0x18C, symBinAddr: 0x100001F58, symSize: 0x2C }
  - { offsetInCU: 0x8787, offset: 0x8787, size: 0x8, addend: 0x0, symName: __ZNSt3__110shared_ptrI1CED1B7v160006Ev, symObjAddr: 0x210, symBinAddr: 0x100001FDC, symSize: 0x2C }
  - { offsetInCU: 0x87B1, offset: 0x87B1, size: 0x8, addend: 0x0, symName: __ZNSt3__111char_traitsIcE6lengthEPKc, symObjAddr: 0x428, symBinAddr: 0x1000021F4, symSize: 0x34 }
  - { offsetInCU: 0x87F2, offset: 0x87F2, size: 0x8, addend: 0x0, symName: __ZNKSt3__113basic_ostreamIcNS_11char_traitsIcEEE6sentrycvbB7v160006Ev, symObjAddr: 0x45C, symBinAddr: 0x100002228, symSize: 0x1C }
  - { offsetInCU: 0x8818, offset: 0x8818, size: 0x8, addend: 0x0, symName: __ZNSt3__119ostreambuf_iteratorIcNS_11char_traitsIcEEEC1B7v160006ERNS_13basic_ostreamIcS2_EE, symObjAddr: 0x6B8, symBinAddr: 0x100002484, symSize: 0x34 }
  - { offsetInCU: 0x8850, offset: 0x8850, size: 0x8, addend: 0x0, symName: __ZNKSt3__18ios_base5flagsB7v160006Ev, symObjAddr: 0x6EC, symBinAddr: 0x1000024B8, symSize: 0x18 }
  - { offsetInCU: 0x8878, offset: 0x8878, size: 0x8, addend: 0x0, symName: __ZNKSt3__19basic_iosIcNS_11char_traitsIcEEE4fillB7v160006Ev, symObjAddr: 0x704, symBinAddr: 0x1000024D0, symSize: 0x64 }
  - { offsetInCU: 0x88A0, offset: 0x88A0, size: 0x8, addend: 0x0, symName: __ZNKSt3__119ostreambuf_iteratorIcNS_11char_traitsIcEEE6failedB7v160006Ev, symObjAddr: 0x768, symBinAddr: 0x100002534, symSize: 0x24 }
  - { offsetInCU: 0x88C6, offset: 0x88C6, size: 0x8, addend: 0x0, symName: __ZNSt3__19basic_iosIcNS_11char_traitsIcEEE8setstateB7v160006Ej, symObjAddr: 0x78C, symBinAddr: 0x100002558, symSize: 0x2C }
  - { offsetInCU: 0x88FB, offset: 0x88FB, size: 0x8, addend: 0x0, symName: __ZNKSt3__18ios_base5widthB7v160006Ev, symObjAddr: 0x7C4, symBinAddr: 0x100002590, symSize: 0x18 }
  - { offsetInCU: 0x8923, offset: 0x8923, size: 0x8, addend: 0x0, symName: __ZNSt3__115basic_streambufIcNS_11char_traitsIcEEE5sputnB7v160006EPKcl, symObjAddr: 0x7DC, symBinAddr: 0x1000025A8, symSize: 0x3C }
  - { offsetInCU: 0x8965, offset: 0x8965, size: 0x8, addend: 0x0, symName: __ZNSt3__112basic_stringIcNS_11char_traitsIcEENS_9allocatorIcEEEC1B7v160006Emc, symObjAddr: 0x818, symBinAddr: 0x1000025E4, symSize: 0x3C }
  - { offsetInCU: 0x89AD, offset: 0x89AD, size: 0x8, addend: 0x0, symName: __ZNSt3__112basic_stringIcNS_11char_traitsIcEENS_9allocatorIcEEE4dataB7v160006Ev, symObjAddr: 0x854, symBinAddr: 0x100002620, symSize: 0x28 }
  - { offsetInCU: 0x89D3, offset: 0x89D3, size: 0x8, addend: 0x0, symName: __ZNSt3__18ios_base5widthB7v160006El, symObjAddr: 0x87C, symBinAddr: 0x100002648, symSize: 0x2C }
  - { offsetInCU: 0x8A19, offset: 0x8A19, size: 0x8, addend: 0x0, symName: __ZNSt3__112basic_stringIcNS_11char_traitsIcEENS_9allocatorIcEEEC2B7v160006Emc, symObjAddr: 0x8A8, symBinAddr: 0x100002674, symSize: 0x54 }
  - { offsetInCU: 0x8A66, offset: 0x8A66, size: 0x8, addend: 0x0, symName: __ZNSt3__117__compressed_pairINS_12basic_stringIcNS_11char_traitsIcEENS_9allocatorIcEEE5__repES5_EC1B7v160006INS_18__default_init_tagESA_EEOT_OT0_, symObjAddr: 0x8FC, symBinAddr: 0x1000026C8, symSize: 0x3C }
  - { offsetInCU: 0x8ABE, offset: 0x8ABE, size: 0x8, addend: 0x0, symName: __ZNSt3__117__compressed_pairINS_12basic_stringIcNS_11char_traitsIcEENS_9allocatorIcEEE5__repES5_EC2B7v160006INS_18__default_init_tagESA_EEOT_OT0_, symObjAddr: 0x948, symBinAddr: 0x100002714, symSize: 0x3C }
  - { offsetInCU: 0x8B16, offset: 0x8B16, size: 0x8, addend: 0x0, symName: __ZNSt3__122__compressed_pair_elemINS_12basic_stringIcNS_11char_traitsIcEENS_9allocatorIcEEE5__repELi0ELb0EEC2B7v160006ENS_18__default_init_tagE, symObjAddr: 0x984, symBinAddr: 0x100002750, symSize: 0x14 }
  - { offsetInCU: 0x8B4B, offset: 0x8B4B, size: 0x8, addend: 0x0, symName: __ZNSt3__122__compressed_pair_elemINS_9allocatorIcEELi1ELb1EEC2B7v160006ENS_18__default_init_tagE, symObjAddr: 0x998, symBinAddr: 0x100002764, symSize: 0x2C }
  - { offsetInCU: 0x8B80, offset: 0x8B80, size: 0x8, addend: 0x0, symName: __ZNSt3__19allocatorIcEC2B7v160006Ev, symObjAddr: 0x9C4, symBinAddr: 0x100002790, symSize: 0x2C }
  - { offsetInCU: 0x8BAA, offset: 0x8BAA, size: 0x8, addend: 0x0, symName: __ZNSt3__116__non_trivial_ifILb1ENS_9allocatorIcEEEC2B7v160006Ev, symObjAddr: 0x9F0, symBinAddr: 0x1000027BC, symSize: 0x14 }
  - { offsetInCU: 0x8BD4, offset: 0x8BD4, size: 0x8, addend: 0x0, symName: __ZNSt3__112basic_stringIcNS_11char_traitsIcEENS_9allocatorIcEEE13__get_pointerB7v160006Ev, symObjAddr: 0xA18, symBinAddr: 0x1000027E4, symSize: 0x54 }
  - { offsetInCU: 0x8BFA, offset: 0x8BFA, size: 0x8, addend: 0x0, symName: __ZNKSt3__112basic_stringIcNS_11char_traitsIcEENS_9allocatorIcEEE9__is_longB7v160006Ev, symObjAddr: 0xA6C, symBinAddr: 0x100002838, symSize: 0x38 }
  - { offsetInCU: 0x8C20, offset: 0x8C20, size: 0x8, addend: 0x0, symName: __ZNSt3__112basic_stringIcNS_11char_traitsIcEENS_9allocatorIcEEE18__get_long_pointerB7v160006Ev, symObjAddr: 0xAA4, symBinAddr: 0x100002870, symSize: 0x28 }
  - { offsetInCU: 0x8C46, offset: 0x8C46, size: 0x8, addend: 0x0, symName: __ZNSt3__112basic_stringIcNS_11char_traitsIcEENS_9allocatorIcEEE19__get_short_pointerB7v160006Ev, symObjAddr: 0xACC, symBinAddr: 0x100002898, symSize: 0x28 }
  - { offsetInCU: 0x8C6C, offset: 0x8C6C, size: 0x8, addend: 0x0, symName: __ZNKSt3__117__compressed_pairINS_12basic_stringIcNS_11char_traitsIcEENS_9allocatorIcEEE5__repES5_E5firstB7v160006Ev, symObjAddr: 0xAF4, symBinAddr: 0x1000028C0, symSize: 0x24 }
  - { offsetInCU: 0x8C92, offset: 0x8C92, size: 0x8, addend: 0x0, symName: __ZNKSt3__122__compressed_pair_elemINS_12basic_stringIcNS_11char_traitsIcEENS_9allocatorIcEEE5__repELi0ELb0EE5__getB7v160006Ev, symObjAddr: 0xB18, symBinAddr: 0x1000028E4, symSize: 0x14 }
  - { offsetInCU: 0x8CB8, offset: 0x8CB8, size: 0x8, addend: 0x0, symName: __ZNSt3__117__compressed_pairINS_12basic_stringIcNS_11char_traitsIcEENS_9allocatorIcEEE5__repES5_E5firstB7v160006Ev, symObjAddr: 0xB2C, symBinAddr: 0x1000028F8, symSize: 0x24 }
  - { offsetInCU: 0x8CDE, offset: 0x8CDE, size: 0x8, addend: 0x0, symName: __ZNSt3__122__compressed_pair_elemINS_12basic_stringIcNS_11char_traitsIcEENS_9allocatorIcEEE5__repELi0ELb0EE5__getB7v160006Ev, symObjAddr: 0xB50, symBinAddr: 0x10000291C, symSize: 0x14 }
  - { offsetInCU: 0x8D04, offset: 0x8D04, size: 0x8, addend: 0x0, symName: __ZNSt3__114pointer_traitsIPcE10pointer_toB7v160006ERc, symObjAddr: 0xB64, symBinAddr: 0x100002930, symSize: 0x14 }
  - { offsetInCU: 0x8D27, offset: 0x8D27, size: 0x8, addend: 0x0, symName: __ZNSt3__119ostreambuf_iteratorIcNS_11char_traitsIcEEEC2B7v160006ERNS_13basic_ostreamIcS2_EE, symObjAddr: 0xB78, symBinAddr: 0x100002944, symSize: 0x54 }
  - { offsetInCU: 0x8D5F, offset: 0x8D5F, size: 0x8, addend: 0x0, symName: __ZNKSt3__19basic_iosIcNS_11char_traitsIcEEE5rdbufB7v160006Ev, symObjAddr: 0xBCC, symBinAddr: 0x100002998, symSize: 0x24 }
  - { offsetInCU: 0x8D87, offset: 0x8D87, size: 0x8, addend: 0x0, symName: __ZNKSt3__18ios_base5rdbufB7v160006Ev, symObjAddr: 0xBF0, symBinAddr: 0x1000029BC, symSize: 0x18 }
  - { offsetInCU: 0x8DAD, offset: 0x8DAD, size: 0x8, addend: 0x0, symName: __ZNSt3__111char_traitsIcE11eq_int_typeEii, symObjAddr: 0xC08, symBinAddr: 0x1000029D4, symSize: 0x28 }
  - { offsetInCU: 0x8DDE, offset: 0x8DDE, size: 0x8, addend: 0x0, symName: __ZNSt3__111char_traitsIcE3eofEv, symObjAddr: 0xC30, symBinAddr: 0x1000029FC, symSize: 0x8 }
  - { offsetInCU: 0x8DF2, offset: 0x8DF2, size: 0x8, addend: 0x0, symName: __ZNKSt3__19basic_iosIcNS_11char_traitsIcEEE5widenB7v160006Ec, symObjAddr: 0xC38, symBinAddr: 0x100002A04, symSize: 0x84 }
  - { offsetInCU: 0x8E60, offset: 0x8E60, size: 0x8, addend: 0x0, symName: __ZNKSt3__15ctypeIcE5widenB7v160006Ec, symObjAddr: 0xCE8, symBinAddr: 0x100002AB4, symSize: 0x38 }
  - { offsetInCU: 0x8E95, offset: 0x8E95, size: 0x8, addend: 0x0, symName: __ZNSt3__18ios_base8setstateB7v160006Ej, symObjAddr: 0xD20, symBinAddr: 0x100002AEC, symSize: 0x34 }
  - { offsetInCU: 0x8ECC, offset: 0x8ECC, size: 0x8, addend: 0x0, symName: __ZNSt3__19allocatorI1CEC1B7v160006Ev, symObjAddr: 0xE08, symBinAddr: 0x100002BD4, symSize: 0x2C }
  - { offsetInCU: 0x8F32, offset: 0x8F32, size: 0x8, addend: 0x0, symName: __ZNSt3__118__allocation_guardINS_9allocatorINS_20__shared_ptr_emplaceI1CNS1_IS3_EEEEEEEC1B7v160006IS4_EET_m, symObjAddr: 0xE34, symBinAddr: 0x100002C00, symSize: 0x34 }
  - { offsetInCU: 0x8F81, offset: 0x8F81, size: 0x8, addend: 0x0, symName: __ZNKSt3__118__allocation_guardINS_9allocatorINS_20__shared_ptr_emplaceI1CNS1_IS3_EEEEEEE5__getB7v160006Ev, symObjAddr: 0xE68, symBinAddr: 0x100002C34, symSize: 0x18 }
  - { offsetInCU: 0x8FA7, offset: 0x8FA7, size: 0x8, addend: 0x0, symName: __ZNSt3__120__shared_ptr_emplaceI1CNS_9allocatorIS1_EEEC1B7v160006IJEEES3_DpOT_, symObjAddr: 0xE80, symBinAddr: 0x100002C4C, symSize: 0x2C }
  - { offsetInCU: 0x8FE5, offset: 0x8FE5, size: 0x8, addend: 0x0, symName: __ZNSt3__118__allocation_guardINS_9allocatorINS_20__shared_ptr_emplaceI1CNS1_IS3_EEEEEEE13__release_ptrB7v160006Ev, symObjAddr: 0xEAC, symBinAddr: 0x100002C78, symSize: 0x24 }
  - { offsetInCU: 0x901A, offset: 0x901A, size: 0x8, addend: 0x0, symName: __ZNSt3__110shared_ptrI1CE27__create_with_control_blockB7v160006IS1_NS_20__shared_ptr_emplaceIS1_NS_9allocatorIS1_EEEEEES2_PT_PT0_, symObjAddr: 0xED0, symBinAddr: 0x100002C9C, symSize: 0xA4 }
  - { offsetInCU: 0x906F, offset: 0x906F, size: 0x8, addend: 0x0, symName: __ZNSt3__120__shared_ptr_emplaceI1CNS_9allocatorIS1_EEE10__get_elemB7v160006Ev, symObjAddr: 0xF74, symBinAddr: 0x100002D40, symSize: 0x28 }
  - { offsetInCU: 0x9095, offset: 0x9095, size: 0x8, addend: 0x0, symName: __ZNSt3__118__allocation_guardINS_9allocatorINS_20__shared_ptr_emplaceI1CNS1_IS3_EEEEEEED1B7v160006Ev, symObjAddr: 0xF9C, symBinAddr: 0x100002D68, symSize: 0x2C }
  - { offsetInCU: 0x90BF, offset: 0x90BF, size: 0x8, addend: 0x0, symName: __ZNSt3__118__allocation_guardINS_9allocatorINS_20__shared_ptr_emplaceI1CNS1_IS3_EEEEEEEC2B7v160006IS4_EET_m, symObjAddr: 0xFC8, symBinAddr: 0x100002D94, symSize: 0x50 }
  - { offsetInCU: 0x910E, offset: 0x910E, size: 0x8, addend: 0x0, symName: __ZNSt3__19allocatorINS_20__shared_ptr_emplaceI1CNS0_IS2_EEEEEC1B7v160006IS2_EERKNS0_IT_EE, symObjAddr: 0x1018, symBinAddr: 0x100002DE4, symSize: 0x34 }
  - { offsetInCU: 0x914C, offset: 0x914C, size: 0x8, addend: 0x0, symName: __ZNSt3__116allocator_traitsINS_9allocatorINS_20__shared_ptr_emplaceI1CNS1_IS3_EEEEEEE8allocateB7v160006ERS6_m, symObjAddr: 0x104C, symBinAddr: 0x100002E18, symSize: 0x2C }
  - { offsetInCU: 0x917F, offset: 0x917F, size: 0x8, addend: 0x0, symName: __ZNSt3__19allocatorINS_20__shared_ptr_emplaceI1CNS0_IS2_EEEEEC2B7v160006IS2_EERKNS0_IT_EE, symObjAddr: 0x1078, symBinAddr: 0x100002E44, symSize: 0x30 }
  - { offsetInCU: 0x91BD, offset: 0x91BD, size: 0x8, addend: 0x0, symName: __ZNSt3__116__non_trivial_ifILb1ENS_9allocatorINS_20__shared_ptr_emplaceI1CNS1_IS3_EEEEEEEC2B7v160006Ev, symObjAddr: 0x10A8, symBinAddr: 0x100002E74, symSize: 0x14 }
  - { offsetInCU: 0x91E7, offset: 0x91E7, size: 0x8, addend: 0x0, symName: __ZNSt3__19allocatorINS_20__shared_ptr_emplaceI1CNS0_IS2_EEEEE8allocateB7v160006Em, symObjAddr: 0x10BC, symBinAddr: 0x100002E88, symSize: 0x5C }
  - { offsetInCU: 0x9225, offset: 0x9225, size: 0x8, addend: 0x0, symName: __ZNSt3__116allocator_traitsINS_9allocatorINS_20__shared_ptr_emplaceI1CNS1_IS3_EEEEEEE8max_sizeB7v160006IS6_vEEmRKS6_, symObjAddr: 0x1118, symBinAddr: 0x100002EE4, symSize: 0x24 }
  - { offsetInCU: 0x9253, offset: 0x9253, size: 0x8, addend: 0x0, symName: __ZNKSt3__19allocatorINS_20__shared_ptr_emplaceI1CNS0_IS2_EEEEE8max_sizeB7v160006Ev, symObjAddr: 0x11D0, symBinAddr: 0x100002F9C, symSize: 0x18 }
  - { offsetInCU: 0x9279, offset: 0x9279, size: 0x8, addend: 0x0, symName: __ZNSt3__120__shared_ptr_emplaceI1CNS_9allocatorIS1_EEEC2B7v160006IJEEES3_DpOT_, symObjAddr: 0x1258, symBinAddr: 0x100003024, symSize: 0x94 }
  - { offsetInCU: 0x92B7, offset: 0x92B7, size: 0x8, addend: 0x0, symName: __ZNSt3__119__shared_weak_countC2B7v160006El, symObjAddr: 0x12EC, symBinAddr: 0x1000030B8, symSize: 0x54 }
  - { offsetInCU: 0x92EF, offset: 0x92EF, size: 0x8, addend: 0x0, symName: __ZNSt3__120__shared_ptr_emplaceI1CNS_9allocatorIS1_EEE8_StorageC1B7v160006EOS3_, symObjAddr: 0x1340, symBinAddr: 0x10000310C, symSize: 0x34 }
  - { offsetInCU: 0x9328, offset: 0x9328, size: 0x8, addend: 0x0, symName: __ZN1CC1Ev, symObjAddr: 0x1374, symBinAddr: 0x100003140, symSize: 0x2C }
  - { offsetInCU: 0x9354, offset: 0x9354, size: 0x8, addend: 0x0, symName: __ZNSt3__120__shared_ptr_emplaceI1CNS_9allocatorIS1_EEED1Ev, symObjAddr: 0x13A0, symBinAddr: 0x10000316C, symSize: 0x2C }
  - { offsetInCU: 0x9381, offset: 0x9381, size: 0x8, addend: 0x0, symName: __ZNSt3__120__shared_ptr_emplaceI1CNS_9allocatorIS1_EEED0Ev, symObjAddr: 0x13CC, symBinAddr: 0x100003198, symSize: 0x30 }
  - { offsetInCU: 0x93AE, offset: 0x93AE, size: 0x8, addend: 0x0, symName: __ZNSt3__120__shared_ptr_emplaceI1CNS_9allocatorIS1_EEE16__on_zero_sharedEv, symObjAddr: 0x13FC, symBinAddr: 0x1000031C8, symSize: 0x30 }
  - { offsetInCU: 0x93D4, offset: 0x93D4, size: 0x8, addend: 0x0, symName: __ZNSt3__120__shared_ptr_emplaceI1CNS_9allocatorIS1_EEE21__on_zero_shared_weakEv, symObjAddr: 0x142C, symBinAddr: 0x1000031F8, symSize: 0x5C }
  - { offsetInCU: 0x9415, offset: 0x9415, size: 0x8, addend: 0x0, symName: __ZNSt3__114__shared_countC2B7v160006El, symObjAddr: 0x1488, symBinAddr: 0x100003254, symSize: 0x30 }
  - { offsetInCU: 0x944D, offset: 0x944D, size: 0x8, addend: 0x0, symName: __ZNSt3__120__shared_ptr_emplaceI1CNS_9allocatorIS1_EEE8_StorageC2B7v160006EOS3_, symObjAddr: 0x14B8, symBinAddr: 0x100003284, symSize: 0x30 }
  - { offsetInCU: 0x9486, offset: 0x9486, size: 0x8, addend: 0x0, symName: __ZNSt3__120__shared_ptr_emplaceI1CNS_9allocatorIS1_EEE8_Storage11__get_allocEv, symObjAddr: 0x14E8, symBinAddr: 0x1000032B4, symSize: 0x3C }
  - { offsetInCU: 0x94D9, offset: 0x94D9, size: 0x8, addend: 0x0, symName: __ZNSt3__117__compressed_pairINS_9allocatorI1CEES2_E16__get_first_baseB7v160006EPS4_, symObjAddr: 0x1524, symBinAddr: 0x1000032F0, symSize: 0x14 }
  - { offsetInCU: 0x94FC, offset: 0x94FC, size: 0x8, addend: 0x0, symName: __ZN1CC2Ev, symObjAddr: 0x1538, symBinAddr: 0x100003304, symSize: 0x60 }
  - { offsetInCU: 0x9528, offset: 0x9528, size: 0x8, addend: 0x0, symName: __ZN1AC2Ev, symObjAddr: 0x1598, symBinAddr: 0x100003364, symSize: 0x24 }
  - { offsetInCU: 0x9554, offset: 0x9554, size: 0x8, addend: 0x0, symName: __ZN1BC2Ev, symObjAddr: 0x15BC, symBinAddr: 0x100003388, symSize: 0x24 }
  - { offsetInCU: 0x9580, offset: 0x9580, size: 0x8, addend: 0x0, symName: __ZN1C4funcEv, symObjAddr: 0x15E0, symBinAddr: 0x1000033AC, symSize: 0x5C }
  - { offsetInCU: 0x95A6, offset: 0x95A6, size: 0x8, addend: 0x0, symName: __ZN1CD1Ev, symObjAddr: 0x163C, symBinAddr: 0x100003408, symSize: 0x2C }
  - { offsetInCU: 0x95D2, offset: 0x95D2, size: 0x8, addend: 0x0, symName: __ZN1CD0Ev, symObjAddr: 0x1668, symBinAddr: 0x100003434, symSize: 0x30 }
  - { offsetInCU: 0x95FE, offset: 0x95FE, size: 0x8, addend: 0x0, symName: __ZThn8_N1C4funcEv, symObjAddr: 0x1698, symBinAddr: 0x100003464, symSize: 0x18 }
  - { offsetInCU: 0x9614, offset: 0x9614, size: 0x8, addend: 0x0, symName: __ZThn8_N1CD1Ev, symObjAddr: 0x16B0, symBinAddr: 0x10000347C, symSize: 0x1C }
  - { offsetInCU: 0x962A, offset: 0x962A, size: 0x8, addend: 0x0, symName: __ZThn8_N1CD0Ev, symObjAddr: 0x16CC, symBinAddr: 0x100003498, symSize: 0x18 }
  - { offsetInCU: 0x9640, offset: 0x9640, size: 0x8, addend: 0x0, symName: __ZN1A4funcEv, symObjAddr: 0x16E4, symBinAddr: 0x1000034B0, symSize: 0x4C }
  - { offsetInCU: 0x9666, offset: 0x9666, size: 0x8, addend: 0x0, symName: __ZN1AD1Ev, symObjAddr: 0x1730, symBinAddr: 0x1000034FC, symSize: 0x2C }
  - { offsetInCU: 0x9690, offset: 0x9690, size: 0x8, addend: 0x0, symName: __ZN1AD0Ev, symObjAddr: 0x175C, symBinAddr: 0x100003528, symSize: 0x30 }
  - { offsetInCU: 0x96BA, offset: 0x96BA, size: 0x8, addend: 0x0, symName: __ZN1AD2Ev, symObjAddr: 0x178C, symBinAddr: 0x100003558, symSize: 0x14 }
  - { offsetInCU: 0x96E4, offset: 0x96E4, size: 0x8, addend: 0x0, symName: __ZN1B4funcEv, symObjAddr: 0x17A0, symBinAddr: 0x10000356C, symSize: 0x4C }
  - { offsetInCU: 0x970A, offset: 0x970A, size: 0x8, addend: 0x0, symName: __ZN1BD1Ev, symObjAddr: 0x17EC, symBinAddr: 0x1000035B8, symSize: 0x2C }
  - { offsetInCU: 0x9734, offset: 0x9734, size: 0x8, addend: 0x0, symName: __ZN1BD0Ev, symObjAddr: 0x1818, symBinAddr: 0x1000035E4, symSize: 0x30 }
  - { offsetInCU: 0x975E, offset: 0x975E, size: 0x8, addend: 0x0, symName: __ZN1BD2Ev, symObjAddr: 0x1848, symBinAddr: 0x100003614, symSize: 0x14 }
  - { offsetInCU: 0x9788, offset: 0x9788, size: 0x8, addend: 0x0, symName: __ZN1CD2Ev, symObjAddr: 0x185C, symBinAddr: 0x100003628, symSize: 0x38 }
  - { offsetInCU: 0x97B4, offset: 0x97B4, size: 0x8, addend: 0x0, symName: __ZNSt3__120__shared_ptr_emplaceI1CNS_9allocatorIS1_EEED2Ev, symObjAddr: 0x1894, symBinAddr: 0x100003660, symSize: 0x48 }
  - { offsetInCU: 0x97E1, offset: 0x97E1, size: 0x8, addend: 0x0, symName: __ZNSt3__120__shared_ptr_emplaceI1CNS_9allocatorIS1_EEE8_StorageD1B7v160006Ev, symObjAddr: 0x18DC, symBinAddr: 0x1000036A8, symSize: 0x2C }
  - { offsetInCU: 0x980B, offset: 0x980B, size: 0x8, addend: 0x0, symName: __ZNSt3__120__shared_ptr_emplaceI1CNS_9allocatorIS1_EEE8_StorageD2B7v160006Ev, symObjAddr: 0x1908, symBinAddr: 0x1000036D4, symSize: 0x2C }
  - { offsetInCU: 0x9835, offset: 0x9835, size: 0x8, addend: 0x0, symName: __ZNSt3__120__shared_ptr_emplaceI1CNS_9allocatorIS1_EEE11__get_allocB7v160006Ev, symObjAddr: 0x1934, symBinAddr: 0x100003700, symSize: 0x28 }
  - { offsetInCU: 0x985B, offset: 0x985B, size: 0x8, addend: 0x0, symName: __ZNSt3__116allocator_traitsINS_9allocatorINS_20__shared_ptr_emplaceI1CNS1_IS3_EEEEEEE10deallocateB7v160006ERS6_PS5_m, symObjAddr: 0x195C, symBinAddr: 0x100003728, symSize: 0x34 }
  - { offsetInCU: 0x989D, offset: 0x989D, size: 0x8, addend: 0x0, symName: __ZNSt3__114pointer_traitsIPNS_20__shared_ptr_emplaceI1CNS_9allocatorIS2_EEEEE10pointer_toB7v160006ERS5_, symObjAddr: 0x1990, symBinAddr: 0x10000375C, symSize: 0x14 }
  - { offsetInCU: 0x98C0, offset: 0x98C0, size: 0x8, addend: 0x0, symName: __ZNSt3__19allocatorINS_20__shared_ptr_emplaceI1CNS0_IS2_EEEEE10deallocateB7v160006EPS4_m, symObjAddr: 0x19A4, symBinAddr: 0x100003770, symSize: 0x44 }
  - { offsetInCU: 0x9902, offset: 0x9902, size: 0x8, addend: 0x0, symName: __ZNSt3__110shared_ptrI1CEC1B7v160006Ev, symObjAddr: 0x1AF0, symBinAddr: 0x1000038BC, symSize: 0x2C }
  - { offsetInCU: 0x992C, offset: 0x992C, size: 0x8, addend: 0x0, symName: __ZNSt3__110shared_ptrI1CE18__enable_weak_thisB7v160006Ez, symObjAddr: 0x1B1C, symBinAddr: 0x1000038E8, symSize: 0x10 }
  - { offsetInCU: 0x9953, offset: 0x9953, size: 0x8, addend: 0x0, symName: __ZNSt3__110shared_ptrI1CEC2B7v160006Ev, symObjAddr: 0x1B2C, symBinAddr: 0x1000038F8, symSize: 0x1C }
  - { offsetInCU: 0x997D, offset: 0x997D, size: 0x8, addend: 0x0, symName: __ZNSt3__120__shared_ptr_emplaceI1CNS_9allocatorIS1_EEE8_Storage10__get_elemEv, symObjAddr: 0x1B48, symBinAddr: 0x100003914, symSize: 0x3C }
  - { offsetInCU: 0x99D0, offset: 0x99D0, size: 0x8, addend: 0x0, symName: __ZNSt3__117__compressed_pairINS_9allocatorI1CEES2_E17__get_second_baseB7v160006EPS4_, symObjAddr: 0x1B84, symBinAddr: 0x100003950, symSize: 0x14 }
  - { offsetInCU: 0x99F3, offset: 0x99F3, size: 0x8, addend: 0x0, symName: __ZNSt3__118__allocation_guardINS_9allocatorINS_20__shared_ptr_emplaceI1CNS1_IS3_EEEEEEED2B7v160006Ev, symObjAddr: 0x1B98, symBinAddr: 0x100003964, symSize: 0x58 }
  - { offsetInCU: 0x9A1D, offset: 0x9A1D, size: 0x8, addend: 0x0, symName: __ZNSt3__19allocatorI1CEC2B7v160006Ev, symObjAddr: 0x1BF0, symBinAddr: 0x1000039BC, symSize: 0x2C }
  - { offsetInCU: 0x9A47, offset: 0x9A47, size: 0x8, addend: 0x0, symName: __ZNSt3__116__non_trivial_ifILb1ENS_9allocatorI1CEEEC2B7v160006Ev, symObjAddr: 0x1C1C, symBinAddr: 0x1000039E8, symSize: 0x14 }
  - { offsetInCU: 0x9A71, offset: 0x9A71, size: 0x8, addend: 0x0, symName: __ZNSt3__110shared_ptrI1CED2B7v160006Ev, symObjAddr: 0x1C30, symBinAddr: 0x1000039FC, symSize: 0x54 }
  - { offsetInCU: 0x9A9B, offset: 0x9A9B, size: 0x8, addend: 0x0, symName: __ZNSt3__119__shared_weak_count16__release_sharedB7v160006Ev, symObjAddr: 0x1C84, symBinAddr: 0x100003A50, symSize: 0x3C }
  - { offsetInCU: 0x9AC1, offset: 0x9AC1, size: 0x8, addend: 0x0, symName: __ZNSt3__114__shared_count16__release_sharedB7v160006Ev, symObjAddr: 0x1CC0, symBinAddr: 0x100003A8C, symSize: 0x7C }
...
